target datalayout = "e-m:e-p270:32:32-p271:32:32-p272:64:64-i64:64-i128:128-f80:128-n8:16:32:64-S128"
target triple = "x86_64-pc-linux-gnu"

@if_exists = internal global i32 0, align 4
@.str.101 = private unnamed_addr constant [9 x i8] c"postgres\00", align 1
@.str.102 = private unnamed_addr constant [10 x i8] c"template1\00", align 1
@OPF = internal global ptr null, align 8
@.str.120 = private unnamed_addr constant [1 x i8] zeroinitializer, align 1
@.str.185 = private unnamed_addr constant [11 x i8] c"IF EXISTS \00", align 1
@.str.186 = private unnamed_addr constant [3 x i8] c"\0A\0A\00", align 1
@.str.278 = private unnamed_addr constant [93 x i8] c"SELECT datname FROM pg_database d WHERE datallowconn AND datconnlimit != -2 ORDER BY datname\00", align 1
@.str.279 = private unnamed_addr constant [58 x i8] c"--\0A-- Drop databases (except postgres and template1)\0A--\0A\0A\00", align 1
@.str.280 = private unnamed_addr constant [10 x i8] c"template0\00", align 1
@.str.281 = private unnamed_addr constant [21 x i8] c"DROP DATABASE %s%s;\0A\00", align 1

; Function Attrs: nounwind uwtable
define internal void @dropDBs(ptr noundef %0) #0 {
  %2 = alloca ptr, align 8
  %3 = alloca ptr, align 8
  %4 = alloca i32, align 4
  %5 = alloca ptr, align 8
  store ptr %0, ptr %2, align 8
  call void @llvm.lifetime.start.p0(i64 8, ptr %3) #11
  call void @llvm.lifetime.start.p0(i64 4, ptr %4) #11
  %6 = load ptr, ptr %2, align 8
  %7 = call ptr @executeQuery(ptr noundef %6, ptr noundef @.str.278)
  store ptr %7, ptr %3, align 8
  %8 = load ptr, ptr %3, align 8
  %9 = call i32 @PQntuples(ptr noundef %8)
  %10 = icmp sgt i32 %9, 0
  br i1 %10, label %11, label %14

11:                                               ; preds = %1
  %12 = load ptr, ptr @OPF, align 8
  %13 = call i32 (ptr, ptr, ...) @pg_fprintf(ptr noundef %12, ptr noundef @.str.279)
  br label %14

14:                                               ; preds = %11, %1
  store i32 0, ptr %4, align 4
  br label %15

15:                                               ; preds = %44, %14
  %16 = load i32, ptr %4, align 4
  %17 = load ptr, ptr %3, align 8
  %18 = call i32 @PQntuples(ptr noundef %17)
  %19 = icmp slt i32 %16, %18
  br i1 %19, label %20, label %47

20:                                               ; preds = %15
  call void @llvm.lifetime.start.p0(i64 8, ptr %5) #11
  %21 = load ptr, ptr %3, align 8
  %22 = load i32, ptr %4, align 4
  %23 = call ptr @PQgetvalue(ptr noundef %21, i32 noundef %22, i32 noundef 0)
  store ptr %23, ptr %5, align 8
  %24 = load ptr, ptr %5, align 8
  %25 = call i32 @strcmp(ptr noundef %24, ptr noundef @.str.102) #12
  %26 = icmp ne i32 %25, 0
  br i1 %26, label %27, label %43

27:                                               ; preds = %20
  %28 = load ptr, ptr %5, align 8
  %29 = call i32 @strcmp(ptr noundef %28, ptr noundef @.str.280) #12
  %30 = icmp ne i32 %29, 0
  br i1 %30, label %31, label %43

31:                                               ; preds = %27
  %32 = load ptr, ptr %5, align 8
  %33 = call i32 @strcmp(ptr noundef %32, ptr noundef @.str.101) #12
  %34 = icmp ne i32 %33, 0
  br i1 %34, label %35, label %43

35:                                               ; preds = %31
  %36 = load ptr, ptr @OPF, align 8
  %37 = load i32, ptr @if_exists, align 4
  %38 = icmp ne i32 %37, 0
  %39 = select i1 %38, ptr @.str.185, ptr @.str.120
  %40 = load ptr, ptr %5, align 8
  %41 = call ptr @fmtId(ptr noundef %40)
  %42 = call i32 (ptr, ptr, ...) @pg_fprintf(ptr noundef %36, ptr noundef @.str.281, ptr noundef %39, ptr noundef %41)
  br label %43

43:                                               ; preds = %35, %31, %27, %20
  call void @llvm.lifetime.end.p0(i64 8, ptr %5) #11
  br label %44

44:                                               ; preds = %43
  %45 = load i32, ptr %4, align 4
  %46 = add i32 %45, 1
  store i32 %46, ptr %4, align 4
  br label %15, !llvm.loop !14

47:                                               ; preds = %15
  %48 = load ptr, ptr %3, align 8
  call void @PQclear(ptr noundef %48)
  %49 = load ptr, ptr @OPF, align 8
  %50 = call i32 (ptr, ptr, ...) @pg_fprintf(ptr noundef %49, ptr noundef @.str.186)
  call void @llvm.lifetime.end.p0(i64 4, ptr %4) #11
  call void @llvm.lifetime.end.p0(i64 8, ptr %3) #11
  ret void
}