; Function Attrs: nounwind uwtable
define internal fastcc void @dropDBs(ptr noundef nonnull %0) unnamed_addr #4 {
  %2 = tail call fastcc ptr @executeQuery(ptr noundef %0, ptr noundef nonnull @.str.278)
  %3 = tail call i32 @PQntuples(ptr noundef nonnull %2) #15
  %4 = icmp sgt i32 %3, 0
  br i1 %4, label %5, label %8

5:                                                ; preds = %1
  %6 = load ptr, ptr @OPF, align 8
  %7 = tail call i32 (ptr, ptr, ...) @pg_fprintf(ptr noundef %6, ptr noundef nonnull @.str.279) #15
  br label %8

8:                                                ; preds = %5, %1
  %9 = tail call i32 @PQntuples(ptr noundef nonnull %2) #15
  %10 = icmp sgt i32 %9, 0
  br i1 %10, label %.lr.ph, label %._crit_edge

.lr.ph:                                           ; preds = %8, %23
  %.014 = phi i32 [ %24, %23 ], [ 0, %8 ]
  %11 = tail call ptr @PQgetvalue(ptr noundef nonnull %2, i32 noundef %.014, i32 noundef 0) #15
  %12 = tail call i32 @strcmp(ptr noundef nonnull dereferenceable(1) %11, ptr noundef nonnull dereferenceable(10) @.str.102) #16
  %.not = icmp eq i32 %12, 0
  br i1 %.not, label %23, label %13

13:                                               ; preds = %.lr.ph
  %14 = tail call i32 @strcmp(ptr noundef nonnull dereferenceable(1) %11, ptr noundef nonnull dereferenceable(10) @.str.280) #16
  %.not11 = icmp eq i32 %14, 0
  br i1 %.not11, label %23, label %15

15:                                               ; preds = %13
  %16 = tail call i32 @strcmp(ptr noundef nonnull dereferenceable(1) %11, ptr noundef nonnull dereferenceable(9) @.str.101) #16
  %.not12 = icmp eq i32 %16, 0
  br i1 %.not12, label %23, label %17

17:                                               ; preds = %15
  %18 = load ptr, ptr @OPF, align 8
  %19 = load i32, ptr @if_exists, align 4
  %.not13 = icmp eq i32 %19, 0
  %20 = select i1 %.not13, ptr @.str.120, ptr @.str.185
  %21 = tail call ptr @fmtId(ptr noundef nonnull %11) #15
  %22 = tail call i32 (ptr, ptr, ...) @pg_fprintf(ptr noundef %18, ptr noundef nonnull @.str.281, ptr noundef nonnull %20, ptr noundef %21) #15
  br label %23

23:                                               ; preds = %17, %15, %13, %.lr.ph
  %24 = add nuw nsw i32 %.014, 1
  %25 = tail call i32 @PQntuples(ptr noundef nonnull %2) #15
  %26 = icmp slt i32 %24, %25
  br i1 %26, label %.lr.ph, label %._crit_edge, !llvm.loop !12

._crit_edge:                                      ; preds = %23, %8
  tail call void @PQclear(ptr noundef nonnull %2) #15
  %27 = load ptr, ptr @OPF, align 8
  %28 = tail call i32 (ptr, ptr, ...) @pg_fprintf(ptr noundef %27, ptr noundef nonnull @.str.186) #15
  ret void
}